target datalayout = "e-m:e-p270:32:32-p271:32:32-p272:64:64-i64:64-i128:128-f80:128-n8:16:32:64-S128"
target triple = "x86_64-pc-linux-gnu"

%struct.Vec_Str_t_ = type { i32, i32, ptr }

; Function Attrs: inlinehint nounwind uwtable
define internal void @Vec_StrGrow(ptr noundef %0, i32 noundef %1) #3 {
  %3 = alloca ptr, align 8
  %4 = alloca i32, align 4
  store ptr %0, ptr %3, align 8, !tbaa !23
  store i32 %1, ptr %4, align 4, !tbaa !12
  %5 = load ptr, ptr %3, align 8, !tbaa !23
  %6 = getelementptr inbounds nuw %struct.Vec_Str_t_, ptr %5, i32 0, i32 0
  %7 = load i32, ptr %6, align 8, !tbaa !54
  %8 = load i32, ptr %4, align 4, !tbaa !12
  %9 = icmp sge i32 %7, %8
  br i1 %9, label %10, label %11

10:                                               ; preds = %2
  br label %36

11:                                               ; preds = %2
  %12 = load ptr, ptr %3, align 8, !tbaa !23
  %13 = getelementptr inbounds nuw %struct.Vec_Str_t_, ptr %12, i32 0, i32 2
  %14 = load ptr, ptr %13, align 8, !tbaa !55
  %15 = icmp ne ptr %14, null
  br i1 %15, label %16, label %24

16:                                               ; preds = %11
  %17 = load ptr, ptr %3, align 8, !tbaa !23
  %18 = getelementptr inbounds nuw %struct.Vec_Str_t_, ptr %17, i32 0, i32 2
  %19 = load ptr, ptr %18, align 8, !tbaa !55
  %20 = load i32, ptr %4, align 4, !tbaa !12
  %21 = sext i32 %20 to i64
  %22 = mul i64 1, %21
  %23 = call ptr @realloc(ptr noundef %19, i64 noundef %22) #14
  br label %29

24:                                               ; preds = %11
  %25 = load i32, ptr %4, align 4, !tbaa !12
  %26 = sext i32 %25 to i64
  %27 = mul i64 1, %26
  %28 = call noalias ptr @malloc(i64 noundef %27) #15
  br label %29

29:                                               ; preds = %24, %16
  %30 = phi ptr [ %23, %16 ], [ %28, %24 ]
  %31 = load ptr, ptr %3, align 8, !tbaa !23
  %32 = getelementptr inbounds nuw %struct.Vec_Str_t_, ptr %31, i32 0, i32 2
  store ptr %30, ptr %32, align 8, !tbaa !55
  %33 = load i32, ptr %4, align 4, !tbaa !12
  %34 = load ptr, ptr %3, align 8, !tbaa !23
  %35 = getelementptr inbounds nuw %struct.Vec_Str_t_, ptr %34, i32 0, i32 0
  store i32 %33, ptr %35, align 8, !tbaa !54
  br label %36

36:                                               ; preds = %29, %10
  ret void
}

; Function Attrs: inlinehint nounwind uwtable
define internal void @Vec_StrPush(ptr noundef %0, i8 noundef signext %1) #3 {
  %3 = alloca ptr, align 8
  %4 = alloca i8, align 1
  store ptr %0, ptr %3, align 8, !tbaa !23
  store i8 %1, ptr %4, align 1, !tbaa !20
  %5 = load ptr, ptr %3, align 8, !tbaa !23
  %6 = getelementptr inbounds nuw %struct.Vec_Str_t_, ptr %5, i32 0, i32 1
  %7 = load i32, ptr %6, align 4, !tbaa !25
  %8 = load ptr, ptr %3, align 8, !tbaa !23
  %9 = getelementptr inbounds nuw %struct.Vec_Str_t_, ptr %8, i32 0, i32 0
  %10 = load i32, ptr %9, align 8, !tbaa !54
  %11 = icmp eq i32 %7, %10
  br i1 %11, label %12, label %26

12:                                               ; preds = %2
  %13 = load ptr, ptr %3, align 8, !tbaa !23
  %14 = getelementptr inbounds nuw %struct.Vec_Str_t_, ptr %13, i32 0, i32 0
  %15 = load i32, ptr %14, align 8, !tbaa !54
  %16 = icmp slt i32 %15, 16
  br i1 %16, label %17, label %19

17:                                               ; preds = %12
  %18 = load ptr, ptr %3, align 8, !tbaa !23
  call void @Vec_StrGrow(ptr noundef %18, i32 noundef 16)
  br label %25

19:                                               ; preds = %12
  %20 = load ptr, ptr %3, align 8, !tbaa !23
  %21 = load ptr, ptr %3, align 8, !tbaa !23
  %22 = getelementptr inbounds nuw %struct.Vec_Str_t_, ptr %21, i32 0, i32 0
  %23 = load i32, ptr %22, align 8, !tbaa !54
  %24 = mul nsw i32 2, %23
  call void @Vec_StrGrow(ptr noundef %20, i32 noundef %24)
  br label %25

25:                                               ; preds = %19, %17
  br label %26

26:                                               ; preds = %25, %2
  %27 = load i8, ptr %4, align 1, !tbaa !20
  %28 = load ptr, ptr %3, align 8, !tbaa !23
  %29 = getelementptr inbounds nuw %struct.Vec_Str_t_, ptr %28, i32 0, i32 2
  %30 = load ptr, ptr %29, align 8, !tbaa !55
  %31 = load ptr, ptr %3, align 8, !tbaa !23
  %32 = getelementptr inbounds nuw %struct.Vec_Str_t_, ptr %31, i32 0, i32 1
  %33 = load i32, ptr %32, align 4, !tbaa !25
  %34 = add nsw i32 %33, 1
  store i32 %34, ptr %32, align 4, !tbaa !25
  %35 = sext i32 %33 to i64
  %36 = getelementptr inbounds i8, ptr %30, i64 %35
  store i8 %27, ptr %36, align 1, !tbaa !20
  ret void
}

; Function Attrs: inlinehint nounwind uwtable
define internal void @Vec_StrPrintNum(ptr noundef %0, i32 noundef %1) #3 {
  %3 = alloca ptr, align 8
  %4 = alloca i32, align 4
  %5 = alloca i32, align 4
  %6 = alloca [16 x i8], align 16
  %7 = alloca i32, align 4
  store ptr %0, ptr %3, align 8, !tbaa !23
  store i32 %1, ptr %4, align 4, !tbaa !12
  call void @llvm.lifetime.start.p0(i64 4, ptr %5) #12
  call void @llvm.lifetime.start.p0(i64 16, ptr %6) #12
  %8 = load i32, ptr %4, align 4, !tbaa !12
  %9 = icmp eq i32 %8, 0
  br i1 %9, label %10, label %12

10:                                               ; preds = %2
  %11 = load ptr, ptr %3, align 8, !tbaa !23
  call void @Vec_StrPush(ptr noundef %11, i8 noundef signext 48)
  store i32 1, ptr %7, align 4
  br label %54

12:                                               ; preds = %2
  %13 = load i32, ptr %4, align 4, !tbaa !12
  %14 = icmp slt i32 %13, 0
  br i1 %14, label %15, label %19

15:                                               ; preds = %12
  %16 = load ptr, ptr %3, align 8, !tbaa !23
  call void @Vec_StrPush(ptr noundef %16, i8 noundef signext 45)
  %17 = load i32, ptr %4, align 4, !tbaa !12
  %18 = sub nsw i32 0, %17
  store i32 %18, ptr %4, align 4, !tbaa !12
  br label %19

19:                                               ; preds = %15, %12
  store i32 0, ptr %5, align 4, !tbaa !12
  br label %20

20:                                               ; preds = %30, %19
  %21 = load i32, ptr %4, align 4, !tbaa !12
  %22 = icmp ne i32 %21, 0
  br i1 %22, label %23, label %35

23:                                               ; preds = %20
  %24 = load i32, ptr %4, align 4, !tbaa !12
  %25 = srem i32 %24, 10
  %26 = trunc i32 %25 to i8
  %27 = load i32, ptr %5, align 4, !tbaa !12
  %28 = sext i32 %27 to i64
  %29 = getelementptr inbounds [16 x i8], ptr %6, i64 0, i64 %28
  store i8 %26, ptr %29, align 1, !tbaa !20
  br label %30

30:                                               ; preds = %23
  %31 = load i32, ptr %4, align 4, !tbaa !12
  %32 = sdiv i32 %31, 10
  store i32 %32, ptr %4, align 4, !tbaa !12
  %33 = load i32, ptr %5, align 4, !tbaa !12
  %34 = add nsw i32 %33, 1
  store i32 %34, ptr %5, align 4, !tbaa !12
  br label %20, !llvm.loop !82

35:                                               ; preds = %20
  %36 = load i32, ptr %5, align 4, !tbaa !12
  %37 = add nsw i32 %36, -1
  store i32 %37, ptr %5, align 4, !tbaa !12
  br label %38

38:                                               ; preds = %50, %35
  %39 = load i32, ptr %5, align 4, !tbaa !12
  %40 = icmp sge i32 %39, 0
  br i1 %40, label %41, label %53

41:                                               ; preds = %38
  %42 = load ptr, ptr %3, align 8, !tbaa !23
  %43 = load i32, ptr %5, align 4, !tbaa !12
  %44 = sext i32 %43 to i64
  %45 = getelementptr inbounds [16 x i8], ptr %6, i64 0, i64 %44
  %46 = load i8, ptr %45, align 1, !tbaa !20
  %47 = sext i8 %46 to i32
  %48 = add nsw i32 48, %47
  %49 = trunc i32 %48 to i8
  call void @Vec_StrPush(ptr noundef %42, i8 noundef signext %49)
  br label %50

50:                                               ; preds = %41
  %51 = load i32, ptr %5, align 4, !tbaa !12
  %52 = add nsw i32 %51, -1
  store i32 %52, ptr %5, align 4, !tbaa !12
  br label %38, !llvm.loop !83

53:                                               ; preds = %38
  store i32 0, ptr %7, align 4
  br label %54

54:                                               ; preds = %53, %10
  call void @llvm.lifetime.end.p0(i64 16, ptr %6) #12
  call void @llvm.lifetime.end.p0(i64 4, ptr %5) #12
  %55 = load i32, ptr %7, align 4
  switch i32 %55, label %57 [
    i32 0, label %56
    i32 1, label %56
  ]

56:                                               ; preds = %54, %54
  ret void

57:                                               ; preds = %54
  unreachable
}